target datalayout = "e-m:e-p270:32:32-p271:32:32-p272:64:64-i64:64-i128:128-f80:128-n8:16:32:64-S128"
target triple = "x86_64-pc-linux-gnu"

%struct.asn1_string_st = type { i32, i32, ptr, i64 }

@.str.3 = private unnamed_addr constant [2 x i8] c"\0A\00", align 1
@.str.24 = private unnamed_addr constant [20 x i8] c" (%ld unused bits)\0A\00", align 1

; Function Attrs: nounwind uwtable
define internal i32 @asn1_print_obstring(ptr noundef %0, ptr noundef %1, i32 noundef %2) #0 {
  %4 = alloca i32, align 4
  %5 = alloca ptr, align 8
  %6 = alloca ptr, align 8
  %7 = alloca i32, align 4
  store ptr %0, ptr %5, align 8, !tbaa !16
  store ptr %1, ptr %6, align 8, !tbaa !66
  store i32 %2, ptr %7, align 4, !tbaa !20
  %8 = load ptr, ptr %6, align 8, !tbaa !66
  %9 = getelementptr inbounds nuw %struct.asn1_string_st, ptr %8, i32 0, i32 1
  %10 = load i32, ptr %9, align 4, !tbaa !68
  %11 = icmp eq i32 %10, 3
  br i1 %11, label %12, label %22

12:                                               ; preds = %3
  %13 = load ptr, ptr %5, align 8, !tbaa !16
  %14 = load ptr, ptr %6, align 8, !tbaa !66
  %15 = getelementptr inbounds nuw %struct.asn1_string_st, ptr %14, i32 0, i32 3
  %16 = load i64, ptr %15, align 8, !tbaa !79
  %17 = and i64 %16, 7
  %18 = call i32 (ptr, ptr, ...) @BIO_printf(ptr noundef %13, ptr noundef @.str.24, i64 noundef %17)
  %19 = icmp sle i32 %18, 0
  br i1 %19, label %20, label %21

20:                                               ; preds = %12
  store i32 0, ptr %4, align 4
  br label %47

21:                                               ; preds = %12
  br label %28

22:                                               ; preds = %3
  %23 = load ptr, ptr %5, align 8, !tbaa !16
  %24 = call i32 @BIO_puts(ptr noundef %23, ptr noundef @.str.3)
  %25 = icmp sle i32 %24, 0
  br i1 %25, label %26, label %27

26:                                               ; preds = %22
  store i32 0, ptr %4, align 4
  br label %47

27:                                               ; preds = %22
  br label %28

28:                                               ; preds = %27, %21
  %29 = load ptr, ptr %6, align 8, !tbaa !66
  %30 = getelementptr inbounds nuw %struct.asn1_string_st, ptr %29, i32 0, i32 0
  %31 = load i32, ptr %30, align 8, !tbaa !76
  %32 = icmp sgt i32 %31, 0
  br i1 %32, label %33, label %46

33:                                               ; preds = %28
  %34 = load ptr, ptr %5, align 8, !tbaa !16
  %35 = load ptr, ptr %6, align 8, !tbaa !66
  %36 = getelementptr inbounds nuw %struct.asn1_string_st, ptr %35, i32 0, i32 2
  %37 = load ptr, ptr %36, align 8, !tbaa !75
  %38 = load ptr, ptr %6, align 8, !tbaa !66
  %39 = getelementptr inbounds nuw %struct.asn1_string_st, ptr %38, i32 0, i32 0
  %40 = load i32, ptr %39, align 8, !tbaa !76
  %41 = load i32, ptr %7, align 4, !tbaa !20
  %42 = add nsw i32 %41, 2
  %43 = call i32 @BIO_dump_indent(ptr noundef %34, ptr noundef %37, i32 noundef %40, i32 noundef %42)
  %44 = icmp sle i32 %43, 0
  br i1 %44, label %45, label %46

45:                                               ; preds = %33
  store i32 0, ptr %4, align 4
  br label %47

46:                                               ; preds = %33, %28
  store i32 1, ptr %4, align 4
  br label %47

47:                                               ; preds = %46, %45, %26, %20
  %48 = load i32, ptr %4, align 4
  ret i32 %48
}