; Function Attrs: nounwind uwtable
define internal fastcc range(i32 0, 2) i32 @asn1_print_obstring(ptr noundef %0, ptr noundef readonly captures(none) %1, i32 noundef %2) unnamed_addr #0 {
  %4 = getelementptr inbounds nuw i8, ptr %1, i64 4
  %5 = load i32, ptr %4, align 4, !tbaa !35
  %6 = icmp eq i32 %5, 3
  br i1 %6, label %7, label %13

7:                                                ; preds = %3
  %8 = getelementptr inbounds nuw i8, ptr %1, i64 16
  %9 = load i64, ptr %8, align 8, !tbaa !54
  %10 = and i64 %9, 7
  %11 = tail call i32 (ptr, ptr, ...) @BIO_printf(ptr noundef %0, ptr noundef nonnull @.str.24, i64 noundef %10) #5
  %12 = icmp slt i32 %11, 1
  br i1 %12, label %26, label %16

13:                                               ; preds = %3
  %14 = tail call i32 @BIO_puts(ptr noundef %0, ptr noundef nonnull @.str.3) #5
  %15 = icmp slt i32 %14, 1
  br i1 %15, label %26, label %16

16:                                               ; preds = %13, %7
  %17 = load i32, ptr %1, align 8, !tbaa !42
  %18 = icmp sgt i32 %17, 0
  br i1 %18, label %19, label %25

19:                                               ; preds = %16
  %20 = getelementptr inbounds nuw i8, ptr %1, i64 8
  %21 = load ptr, ptr %20, align 8, !tbaa !41
  %22 = add nsw i32 %2, 2
  %23 = tail call i32 @BIO_dump_indent(ptr noundef %0, ptr noundef %21, i32 noundef %17, i32 noundef %22) #5
  %24 = icmp slt i32 %23, 1
  br i1 %24, label %26, label %25

25:                                               ; preds = %19, %16
  br label %26

26:                                               ; preds = %19, %13, %7, %25
  %.0 = phi i32 [ 1, %25 ], [ 0, %7 ], [ 0, %13 ], [ 0, %19 ]
  ret i32 %.0
}